target datalayout = "e-m:e-p270:32:32-p271:32:32-p272:64:64-i64:64-i128:128-f80:128-n8:16:32:64-S128"
target triple = "x86_64-pc-linux-gnu"

%struct.dirent = type { i64, i64, i16, i8, [256 x i8] }
%struct.stat = type { i64, i64, i64, i32, i32, i32, i32, i64, i64, i64, i64, %struct.timespec, %struct.timespec, %struct.timespec, [3 x i64] }
%struct.timespec = type { i64, i64 }

@.str.1 = private unnamed_addr constant [9 x i8] c"dbsize.c\00", align 1
@InterruptPending = external global i32, align 4
@.str.11 = private unnamed_addr constant [2 x i8] c".\00", align 1
@.str.12 = private unnamed_addr constant [3 x i8] c"..\00", align 1
@.str.15 = private unnamed_addr constant [6 x i8] c"%s/%s\00", align 1
@.str.16 = private unnamed_addr constant [29 x i8] c"could not stat file \22%s\22: %m\00", align 1
@__func__.db_dir_size = private unnamed_addr constant [12 x i8] c"db_dir_size\00", align 1

; Function Attrs: nounwind uwtable
define internal i64 @db_dir_size(ptr noundef %0) #0 {
  %2 = alloca i64, align 8
  %3 = alloca ptr, align 8
  %4 = alloca i64, align 8
  %5 = alloca ptr, align 8
  %6 = alloca ptr, align 8
  %7 = alloca [2048 x i8], align 16
  %8 = alloca i32, align 4
  %9 = alloca %struct.stat, align 8
  store ptr %0, ptr %3, align 8
  call void @llvm.lifetime.start.p0(i64 8, ptr %4) #10
  store i64 0, ptr %4, align 8
  call void @llvm.lifetime.start.p0(i64 8, ptr %5) #10
  call void @llvm.lifetime.start.p0(i64 8, ptr %6) #10
  call void @llvm.lifetime.start.p0(i64 2048, ptr %7) #10
  %10 = load ptr, ptr %3, align 8
  %11 = call ptr @AllocateDir(ptr noundef %10)
  store ptr %11, ptr %6, align 8
  %12 = load ptr, ptr %6, align 8
  %13 = icmp ne ptr %12, null
  br i1 %13, label %15, label %14

14:                                               ; preds = %1
  store i64 0, ptr %2, align 8
  store i32 1, ptr %8, align 4
  br label %86

15:                                               ; preds = %1
  br label %16

16:                                               ; preds = %81, %79, %15
  %17 = load ptr, ptr %6, align 8
  %18 = load ptr, ptr %3, align 8
  %19 = call ptr @ReadDir(ptr noundef %17, ptr noundef %18)
  store ptr %19, ptr %5, align 8
  %20 = icmp ne ptr %19, null
  br i1 %20, label %21, label %82

21:                                               ; preds = %16
  call void @llvm.lifetime.start.p0(i64 144, ptr %9) #10
  br label %22

22:                                               ; preds = %21
  %23 = load volatile i32, ptr @InterruptPending, align 4
  %24 = icmp ne i32 %23, 0
  %25 = zext i1 %24 to i32
  %26 = sext i32 %25 to i64
  %27 = call i64 @llvm.expect.i64(i64 %26, i64 0)
  %28 = icmp ne i64 %27, 0
  br i1 %28, label %29, label %30

29:                                               ; preds = %22
  call void @ProcessInterrupts()
  br label %30

30:                                               ; preds = %29, %22
  br label %31

31:                                               ; preds = %30
  br label %32

32:                                               ; preds = %31
  %33 = load ptr, ptr %5, align 8
  %34 = getelementptr inbounds nuw %struct.dirent, ptr %33, i32 0, i32 4
  %35 = getelementptr inbounds [256 x i8], ptr %34, i64 0, i64 0
  %36 = call i32 @strcmp(ptr noundef %35, ptr noundef @.str.11) #12
  %37 = icmp eq i32 %36, 0
  br i1 %37, label %44, label %38

38:                                               ; preds = %32
  %39 = load ptr, ptr %5, align 8
  %40 = getelementptr inbounds nuw %struct.dirent, ptr %39, i32 0, i32 4
  %41 = getelementptr inbounds [256 x i8], ptr %40, i64 0, i64 0
  %42 = call i32 @strcmp(ptr noundef %41, ptr noundef @.str.12) #12
  %43 = icmp eq i32 %42, 0
  br i1 %43, label %44, label %45

44:                                               ; preds = %38, %32
  store i32 2, ptr %8, align 4
  br label %79, !llvm.loop !21

45:                                               ; preds = %38
  %46 = getelementptr inbounds [2048 x i8], ptr %7, i64 0, i64 0
  %47 = load ptr, ptr %3, align 8
  %48 = load ptr, ptr %5, align 8
  %49 = getelementptr inbounds nuw %struct.dirent, ptr %48, i32 0, i32 4
  %50 = getelementptr inbounds [256 x i8], ptr %49, i64 0, i64 0
  %51 = call i32 (ptr, i64, ptr, ...) @pg_snprintf(ptr noundef %46, i64 noundef 2048, ptr noundef @.str.15, ptr noundef %47, ptr noundef %50)
  %52 = getelementptr inbounds [2048 x i8], ptr %7, i64 0, i64 0
  %53 = call i32 @stat(ptr noundef %52, ptr noundef %9) #10
  %54 = icmp slt i32 %53, 0
  br i1 %54, label %55, label %74

55:                                               ; preds = %45
  %56 = call ptr @__errno_location() #13
  %57 = load i32, ptr %56, align 4
  %58 = icmp eq i32 %57, 2
  br i1 %58, label %59, label %60

59:                                               ; preds = %55
  store i32 2, ptr %8, align 4
  br label %79, !llvm.loop !21

60:                                               ; preds = %55
  br label %61

61:                                               ; preds = %60
  br i1 true, label %62, label %64

62:                                               ; preds = %61
  %63 = call zeroext i1 @errstart_cold(i32 noundef 21, ptr noundef null) #11
  br i1 %63, label %66, label %70

64:                                               ; preds = %61
  %65 = call zeroext i1 @errstart(i32 noundef 21, ptr noundef null)
  br i1 %65, label %66, label %70

66:                                               ; preds = %64, %62
  %67 = call i32 @errcode_for_file_access()
  %68 = getelementptr inbounds [2048 x i8], ptr %7, i64 0, i64 0
  %69 = call i32 (ptr, ...) @errmsg(ptr noundef @.str.16, ptr noundef %68)
  call void @errfinish(ptr noundef @.str.1, i32 noundef 105, ptr noundef @__func__.db_dir_size)
  br label %70

70:                                               ; preds = %66, %64, %62
  unreachable

71:                                               ; No predecessors!
  br label %72

72:                                               ; preds = %71
  br label %73

73:                                               ; preds = %72
  br label %74

74:                                               ; preds = %73, %45
  %75 = getelementptr inbounds nuw %struct.stat, ptr %9, i32 0, i32 8
  %76 = load i64, ptr %75, align 8
  %77 = load i64, ptr %4, align 8
  %78 = add i64 %77, %76
  store i64 %78, ptr %4, align 8
  store i32 0, ptr %8, align 4
  br label %79

79:                                               ; preds = %74, %59, %44
  call void @llvm.lifetime.end.p0(i64 144, ptr %9) #10
  %80 = load i32, ptr %8, align 4
  switch i32 %80, label %88 [
    i32 0, label %81
    i32 2, label %16
  ]

81:                                               ; preds = %79
  br label %16, !llvm.loop !21

82:                                               ; preds = %16
  %83 = load ptr, ptr %6, align 8
  %84 = call i32 @FreeDir(ptr noundef %83)
  %85 = load i64, ptr %4, align 8
  store i64 %85, ptr %2, align 8
  store i32 1, ptr %8, align 4
  br label %86

86:                                               ; preds = %82, %14
  call void @llvm.lifetime.end.p0(i64 2048, ptr %7) #10
  call void @llvm.lifetime.end.p0(i64 8, ptr %6) #10
  call void @llvm.lifetime.end.p0(i64 8, ptr %5) #10
  call void @llvm.lifetime.end.p0(i64 8, ptr %4) #10
  %87 = load i64, ptr %2, align 8
  ret i64 %87

88:                                               ; preds = %79
  unreachable
}