; Function Attrs: nounwind uwtable
define internal fastcc i64 @db_dir_size(ptr noundef nonnull %0) unnamed_addr #0 {
  %2 = alloca [2048 x i8], align 16
  %3 = alloca %struct.stat, align 8
  call void @llvm.lifetime.start.p0(i64 2048, ptr nonnull %2) #9
  %4 = tail call ptr @AllocateDir(ptr noundef nonnull %0) #9
  %.not = icmp eq ptr %4, null
  br i1 %.not, label %38, label %.preheader

.preheader:                                       ; preds = %1
  %5 = tail call ptr @ReadDir(ptr noundef nonnull %4, ptr noundef nonnull %0) #9
  %.not1320 = icmp eq ptr %5, null
  br i1 %.not1320, label %._crit_edge, label %.lr.ph

.lr.ph:                                           ; preds = %.preheader
  %6 = getelementptr inbounds nuw i8, ptr %3, i64 48
  br label %7

7:                                                ; preds = %.lr.ph, %35
  %8 = phi ptr [ %5, %.lr.ph ], [ %36, %35 ]
  %.01121 = phi i64 [ 0, %.lr.ph ], [ %.1, %35 ]
  call void @llvm.lifetime.start.p0(i64 144, ptr nonnull %3) #9
  %9 = load volatile i32, ptr @InterruptPending, align 4
  %.not14 = icmp eq i32 %9, 0
  br i1 %.not14, label %sub_0, label %10, !prof !4

10:                                               ; preds = %7
  call void @ProcessInterrupts() #9
  br label %sub_0

sub_0:                                            ; preds = %10, %7
  %11 = getelementptr inbounds nuw i8, ptr %8, i64 19
  %12 = load i8, ptr %11, align 1
  %.not22 = icmp eq i8 %12, 46
  br i1 %.not22, label %.tail, label %.tail15.thread

.tail:                                            ; preds = %sub_0
  %13 = getelementptr inbounds nuw i8, ptr %8, i64 20
  %14 = load i8, ptr %13, align 1
  %15 = icmp eq i8 %14, 0
  br i1 %15, label %35, label %sub_117, !llvm.loop !20

sub_117:                                          ; preds = %.tail
  %16 = getelementptr inbounds nuw i8, ptr %8, i64 20
  %17 = load i8, ptr %16, align 1
  %.not24 = icmp eq i8 %17, 46
  br i1 %.not24, label %.tail15, label %.tail15.thread

.tail15:                                          ; preds = %sub_117
  %18 = getelementptr inbounds nuw i8, ptr %8, i64 21
  %19 = load i8, ptr %18, align 1
  %20 = icmp eq i8 %19, 0
  br i1 %20, label %35, label %.tail15.thread, !llvm.loop !20

.tail15.thread:                                   ; preds = %sub_0, %sub_117, %.tail15
  %21 = call i32 (ptr, i64, ptr, ...) @pg_snprintf(ptr noundef nonnull %2, i64 noundef 2048, ptr noundef nonnull @.str.15, ptr noundef nonnull %0, ptr noundef nonnull %11) #9
  %22 = call i32 @stat(ptr noundef nonnull %2, ptr noundef nonnull %3) #9
  %23 = icmp slt i32 %22, 0
  br i1 %23, label %24, label %32

24:                                               ; preds = %.tail15.thread
  %25 = tail call ptr @__errno_location() #11
  %26 = load i32, ptr %25, align 4
  %27 = icmp eq i32 %26, 2
  br i1 %27, label %35, label %28, !llvm.loop !20

28:                                               ; preds = %24
  %29 = call zeroext i1 @errstart_cold(i32 noundef 21, ptr noundef null) #10
  call void @llvm.assume(i1 %29)
  %30 = call i32 @errcode_for_file_access() #9
  %31 = call i32 (ptr, ...) @errmsg(ptr noundef nonnull @.str.16, ptr noundef nonnull %2) #9
  call void @errfinish(ptr noundef nonnull @.str.1, i32 noundef 105, ptr noundef nonnull @__func__.db_dir_size) #9
  unreachable

32:                                               ; preds = %.tail15.thread
  %33 = load i64, ptr %6, align 8
  %34 = add i64 %33, %.01121
  br label %35

35:                                               ; preds = %24, %.tail, %.tail15, %32
  %.1 = phi i64 [ %34, %32 ], [ %.01121, %.tail15 ], [ %.01121, %.tail ], [ %.01121, %24 ]
  call void @llvm.lifetime.end.p0(i64 144, ptr nonnull %3) #9
  %36 = call ptr @ReadDir(ptr noundef nonnull %4, ptr noundef nonnull %0) #9
  %.not13 = icmp eq ptr %36, null
  br i1 %.not13, label %._crit_edge, label %7

._crit_edge:                                      ; preds = %35, %.preheader
  %.011.lcssa = phi i64 [ 0, %.preheader ], [ %.1, %35 ]
  %37 = call i32 @FreeDir(ptr noundef nonnull %4) #9
  br label %38

38:                                               ; preds = %1, %._crit_edge
  %.0 = phi i64 [ %.011.lcssa, %._crit_edge ], [ 0, %1 ]
  call void @llvm.lifetime.end.p0(i64 2048, ptr nonnull %2) #9
  ret i64 %.0
}